Certificate:
    Data:
        Version: 3 (0x2)
        Serial Number: 2 (0x2)
    Signature Algorithm: sha256WithRSAEncryption
        Issuer: C=RU, ST=Some-State, O=Internet Widgits Pty Ltd, CN=MYCA
        Validity
            Not Before: Mar 27 10:22:30 2017 GMT
            Not After : Mar 27 10:22:30 2018 GMT
        Subject: C=RU, ST=Some-State, O=Internet Widgits Pty Ltd, OU=client, CN=client
        Subject Public Key Info:
            Public Key Algorithm: rsaEncryption
                Public-Key: (2048 bit)
                Modulus:
                    00:c2:c1:4a:52:71:db:d7:1e:db:9c:d1:b4:ae:ee:
                    69:d9:7b:41:d9:8d:65:3c:cd:f5:3c:65:aa:95:f1:
                    19:de:b9:b8:c9:ee:97:50:c2:e1:01:1a:92:76:26:
                    f1:94:56:83:a2:bc:8d:68:8c:a0:35:49:fa:e6:5a:
                    f2:a8:7a:d2:bc:59:17:6c:00:0a:01:e9:ee:74:60:
                    9d:ca:9b:eb:31:ee:d3:c2:7e:c4:41:6e:bd:a0:10:
                    62:f4:b6:42:b1:d0:ac:af:a6:50:7b:94:36:de:e2:
                    76:aa:cf:90:70:7d:5c:bf:37:d9:d7:a5:c1:f8:16:
                    cc:02:b9:c8:ca:5b:12:1b:10:b1:d5:f7:5b:11:d5:
                    27:d2:cc:51:90:95:8b:a3:66:8c:9e:83:16:2d:d4:
                    60:08:da:8c:e8:8e:13:fa:39:fc:b6:d1:0c:f6:af:
                    3e:f6:42:a5:2d:c9:eb:61:69:e3:ce:5a:f3:61:a0:
                    c7:13:fc:c7:09:ce:32:ea:f2:63:3c:e6:8e:6e:8a:
                    9a:23:54:b7:b8:c4:a2:32:35:eb:35:2c:95:71:fa:
                    9e:f7:b6:27:f3:c5:8b:e3:01:11:89:4b:03:80:d4:
                    b3:aa:30:26:bc:3a:70:79:50:f4:b6:7c:81:5f:aa:
                    c7:c2:94:46:79:d1:2c:31:41:82:51:28:7e:4f:43:
                    32:a5
                Exponent: 65537 (0x10001)
        X509v3 extensions:
            X509v3 Basic Constraints: 
                CA:FALSE
            Netscape Comment: 
                OpenSSL Generated Certificate
            X509v3 Subject Key Identifier: 
                61:9B:EC:D9:D4:67:5B:CE:49:8D:DD:53:A3:F5:D2:B7:97:62:A4:A5
            X509v3 Authority Key Identifier: 
                keyid:42:22:20:97:65:B7:96:C6:D2:2E:86:58:AB:55:69:11:33:C7:46:F4

    Signature Algorithm: sha256WithRSAEncryption
         80:98:32:74:8a:27:34:09:52:03:10:06:e6:6f:dc:3f:4e:84:
         5d:69:d7:bf:36:ca:2e:a3:96:c0:db:14:da:bc:6f:60:5b:fc:
         05:6e:b0:9f:3a:ed:ac:3f:4d:97:92:89:22:49:c5:af:fb:0a:
         f9:71:fb:ec:c8:4a:88:34:70:d9:75:08:68:0f:02:a9:40:27:
         19:0e:f4:6c:0a:f0:54:01:2d:1d:c8:08:c7:74:f1:89:86:7e:
         da:2a:36:17:43:0a:23:6c:85:7e:de:56:3b:42:e8:1b:61:48:
         5b:48:de:fc:7a:fb:79:64:a3:a2:38:ea:f0:be:ca:db:eb:64:
         30:57:03:e5:17:54:d0:67:ea:46:d4:cc:05:91:8b:41:8d:00:
         34:46:db:53:cb:22:bf:75:a0:29:7a:b4:31:df:35:3c:d0:12:
         91:d2:bb:65:42:c9:c5:16:0b:53:54:cd:a0:f6:d1:76:c0:5a:
         88:65:19:a9:4f:7f:06:88:93:91:12:e0:ae:0f:f0:b2:8a:0c:
         77:2f:81:29:43:43:2e:9e:07:31:d0:4d:6c:7f:59:9a:ed:c2:
         ce:03:85:64:8b:a3:6e:78:18:9f:a3:9b:3e:16:cc:98:b9:e0:
         32:39:a4:51:9c:52:86:42:f8:64:b4:04:be:76:a2:5d:70:af:
         70:68:58:ad
-----BEGIN CERTIFICATE-----
MIIDsTCCApmgAwIBAgIBAjANBgkqhkiG9w0BAQsFADBUMQswCQYDVQQGEwJSVTET
MBEGA1UECAwKU29tZS1TdGF0ZTEhMB8GA1UECgwYSW50ZXJuZXQgV2lkZ2l0cyBQ
dHkgTHRkMQ0wCwYDVQQDDARNWUNBMB4XDTE3MDMyNzEwMjIzMFoXDTE4MDMyNzEw
MjIzMFowZzELMAkGA1UEBhMCUlUxEzARBgNVBAgMClNvbWUtU3RhdGUxITAfBgNV
BAoMGEludGVybmV0IFdpZGdpdHMgUHR5IEx0ZDEPMA0GA1UECwwGY2xpZW50MQ8w
DQYDVQQDDAZjbGllbnQwggEiMA0GCSqGSIb3DQEBAQUAA4IBDwAwggEKAoIBAQDC
wUpScdvXHtuc0bSu7mnZe0HZjWU8zfU8ZaqV8RneubjJ7pdQwuEBGpJ2JvGUVoOi
vI1ojKA1SfrmWvKoetK8WRdsAAoB6e50YJ3Km+sx7tPCfsRBbr2gEGL0tkKx0Kyv
plB7lDbe4naqz5BwfVy/N9nXpcH4FswCucjKWxIbELHV91sR1SfSzFGQlYujZoye
gxYt1GAI2ozojhP6Ofy20Qz2rz72QqUtyethaePOWvNhoMcT/McJzjLq8mM85o5u
ipojVLe4xKIyNes1LJVx+p73tifzxYvjARGJSwOA1LOqMCa8OnB5UPS2fIFfqsfC
lEZ50SwxQYJRKH5PQzKlAgMBAAGjezB5MAkGA1UdEwQCMAAwLAYJYIZIAYb4QgEN
BB8WHU9wZW5TU0wgR2VuZXJhdGVkIENlcnRpZmljYXRlMB0GA1UdDgQWBBRhm+zZ
1GdbzkmN3VOj9dK3l2KkpTAfBgNVHSMEGDAWgBRCIiCXZbeWxtIuhlirVWkRM8dG
9DANBgkqhkiG9w0BAQsFAAOCAQEAgJgydIonNAlSAxAG5m/cP06EXWnXvzbKLqOW
wNsU2rxvYFv8BW6wnzrtrD9Nl5KJIknFr/sK+XH77MhKiDRw2XUIaA8CqUAnGQ70
bArwVAEtHcgIx3TxiYZ+2io2F0MKI2yFft5WO0LoG2FIW0je/Hr7eWSjojjq8L7K
2+tkMFcD5RdU0GfqRtTMBZGLQY0ANEbbU8siv3WgKXq0Md81PNASkdK7ZULJxRYL
U1TNoPbRdsBaiGUZqU9/BoiTkRLgrg/wsooMdy+BKUNDLp4HMdBNbH9Zmu3CzgOF
ZIujbngYn6ObPhbMmLngMjmkUZxShkL4ZLQEvnaiXXCvcGhYrQ==
-----END CERTIFICATE-----
